EXPORTS
	_ZN12CFilterParam10SetDocNameERK7TDesC16 @ 1 NONAME
	_ZN12CFilterParam11SetmimeTypeERK6TDesC8 @ 2 NONAME
	_ZN12CFilterParam4NewLEv @ 3 NONAME
	_ZN18CAppManagerService15LaunchDocumentLER9TDocumentRK6TDesC8RK8TOptionsR7TDesC16P12MAppObserverl @ 4 NONAME
	_ZN18CAppManagerService18LaunchApplicationLERK7TDesC16RK6TDesC8RK8TOptionsP12MAppObserverl @ 5 NONAME
	_ZN18CAppManagerService4NewLEv @ 6 NONAME
	_ZN18CAppManagerService6CancelEl @ 7 NONAME
	_ZN18CAppManagerService8GetListLERP9MIteratorRK7TDesC16PK12CFilterParam @ 8 NONAME
	_ZNK12CFilterParam7DocNameEv @ 9 NONAME
	_ZNK12CFilterParam8MimeTypeEv @ 10 NONAME
	_ZTI12CAppIterator @ 11 NONAME ; #<TI>#
	_ZTI12CFilterParam @ 12 NONAME ; #<TI>#
	_ZTI18CAppManagerService @ 13 NONAME ; #<TI>#
	_ZTI19CInstallPkgIterator @ 14 NONAME ; #<TI>#
	_ZTI21CAsynchRequestManager @ 15 NONAME ; #<TI>#
	_ZTI8CAppInfo @ 16 NONAME ; #<TI>#
	_ZTI8CPkgInfo @ 17 NONAME ; #<TI>#
	_ZTI8MInfoMap @ 18 NONAME ; #<TI>#
	_ZTI9CLauncher @ 19 NONAME ; #<TI>#
	_ZTI9MIterator @ 20 NONAME ; #<TI>#
	_ZTV12CAppIterator @ 21 NONAME ; #<VT>#
	_ZTV12CFilterParam @ 22 NONAME ; #<VT>#
	_ZTV18CAppManagerService @ 23 NONAME ; #<VT>#
	_ZTV19CInstallPkgIterator @ 24 NONAME ; #<VT>#
	_ZTV21CAsynchRequestManager @ 25 NONAME ; #<VT>#
	_ZTV8CAppInfo @ 26 NONAME ; #<VT>#
	_ZTV8CPkgInfo @ 27 NONAME ; #<VT>#
	_ZTV8MInfoMap @ 28 NONAME ; #<VT>#
	_ZTV9CLauncher @ 29 NONAME ; #<VT>#
	_ZTV9MIterator @ 30 NONAME ; #<VT>#

