EXPORTS
	?AddEventL@CLoggingService@@QAEHIPAVCLogsEvent@@PAVMLoggingCallback@@@Z @ 1 NONAME ; int CLoggingService::AddEventL(unsigned int, class CLogsEvent *, class MLoggingCallback *)
	?AddEventL@CLoggingService@@QAEJPAVCLogsEvent@@@Z @ 2 NONAME ; long CLoggingService::AddEventL(class CLogsEvent *)
	?AddL@CLogAsyncService@@QAEXIPAVCLogEvent@@@Z @ 3 NONAME ; void CLogAsyncService::AddL(unsigned int, class CLogEvent *)
	?AddL@CLogSyncService@@QAEJPAVCLogEvent@@@Z @ 4 NONAME ; long CLogSyncService::AddL(class CLogEvent *)
	?CancelServiceL@CLoggingService@@QAEHI@Z @ 5 NONAME ; int CLoggingService::CancelServiceL(unsigned int)
	?Delete@CLogAsyncService@@QAEXIJ@Z @ 6 NONAME ; void CLogAsyncService::Delete(unsigned int, long)
	?Delete@CLogSyncService@@QAEHJ@Z @ 7 NONAME ; int CLogSyncService::Delete(long)
	?DeleteEventL@CLoggingService@@QAEHJ@Z @ 8 NONAME ; int CLoggingService::DeleteEventL(long)
	?DeleteEventL@CLoggingService@@QAEXIJPAVMLoggingCallback@@@Z @ 9 NONAME ; void CLoggingService::DeleteEventL(unsigned int, long, class MLoggingCallback *)
	?GetEventL@CLogAsyncService@@QAEXIPAVCLogEvent@@@Z @ 10 NONAME ; void CLogAsyncService::GetEventL(unsigned int, class CLogEvent *)
	?GetListL@CLogAsyncService@@QAEXIPAVCLogFilter@@@Z @ 11 NONAME ; void CLogAsyncService::GetListL(unsigned int, class CLogFilter *)
	?GetListL@CLogSyncService@@QAEPAVCLogIter@@PAVCLogFilter@@@Z @ 12 NONAME ; class CLogIter * CLogSyncService::GetListL(class CLogFilter *)
	?GetListL@CLoggingService@@QAEHIPAVCLogsFilter@@PAVMLoggingCallback@@@Z @ 13 NONAME ; int CLoggingService::GetListL(unsigned int, class CLogsFilter *, class MLoggingCallback *)
	?GetListL@CLoggingService@@QAEPAVCLogIter@@PAVCLogsFilter@@@Z @ 14 NONAME ; class CLogIter * CLoggingService::GetListL(class CLogsFilter *)
	?NewL@CCallbackSlot@@SAPAV1@XZ @ 15 NONAME ; class CCallbackSlot * CCallbackSlot::NewL(void)
	?NewL@CLogAsyncService@@SAPAV1@PAVMLoggingCallback@@@Z @ 16 NONAME ; class CLogAsyncService * CLogAsyncService::NewL(class MLoggingCallback *)
	?NewL@CLogIter@@SAPAV1@XZ @ 17 NONAME ; class CLogIter * CLogIter::NewL(void)
	?NewL@CLogSyncService@@SAPAV1@XZ @ 18 NONAME ; class CLogSyncService * CLogSyncService::NewL(void)
	?NewL@CLoggingService@@SAPAV1@XZ @ 19 NONAME ; class CLoggingService * CLoggingService::NewL(void)
	?NewL@CLogsEvent@@SAPAV1@XZ @ 20 NONAME ; class CLogsEvent * CLogsEvent::NewL(void)
	?NewL@CLogsFilter@@SAPAV1@XZ @ 21 NONAME ; class CLogsFilter * CLogsFilter::NewL(void)
	?NextL@CLogIter@@QAEPAVCLogsEvent@@XZ @ 22 NONAME ; class CLogsEvent * CLogIter::NextL(void)
	?NotifyUpdates@CLogAsyncService@@QAEXIVTTimeIntervalMicroSeconds32@@@Z @ 23 NONAME ; void CLogAsyncService::NotifyUpdates(unsigned int, class TTimeIntervalMicroSeconds32)
	?NotifyUpdatesL@CLoggingService@@QAEHIVTTimeIntervalMicroSeconds32@@PAVMLoggingCallback@@@Z @ 24 NONAME ; int CLoggingService::NotifyUpdatesL(unsigned int, class TTimeIntervalMicroSeconds32, class MLoggingCallback *)
	?Reset@CLogIter@@QAEXXZ @ 25 NONAME ; void CLogIter::Reset(void)
	?SetDirection@CLogsEvent@@QAEXH@Z @ 26 NONAME ; void CLogsEvent::SetDirection(int)
	?SetDirection@CLogsFilter@@QAEXH@Z @ 27 NONAME ; void CLogsFilter::SetDirection(int)
	?SetEventL@CLogIter@@QAEXPAVCLogsEvent@@@Z @ 28 NONAME ; void CLogIter::SetEventL(class CLogsEvent *)
	?SetEventL@CLogsFilter@@QAEXPAVCLogsEvent@@@Z @ 29 NONAME ; void CLogsFilter::SetEventL(class CLogsEvent *)
	?SetStatus@CLogsEvent@@QAEXH@Z @ 30 NONAME ; void CLogsEvent::SetStatus(int)
	?SetStatus@CLogsFilter@@QAEXH@Z @ 31 NONAME ; void CLogsFilter::SetStatus(int)

