EXPORTS
	_ZN14CMessageHeader11SetSubjectLERK7TDesC16 @ 1 NONAME
	_ZN14CMessageHeader12SetMessageIdEl @ 2 NONAME
	_ZN14CMessageHeader13SetAttachFlagEi @ 3 NONAME
	_ZN14CMessageHeader13SetUnreadFlagEi @ 4 NONAME
	_ZN14CMessageHeader15SetPriorityFlagE12TMsvPriority @ 5 NONAME
	_ZN14CMessageHeader4NewLEv @ 6 NONAME
	_ZN14CMessageHeader7SetTimeERK5TTime @ 7 NONAME
	_ZN14CMessageHeader8SetFromLERK7TDesC16 @ 8 NONAME
	_ZN14CMessageHeader8SetMtmIdE4TUid @ 9 NONAME
	_ZN14CRecipientList4NewLEv @ 10 NONAME
	_ZN14CRecipientList5ResetEv @ 11 NONAME
	_ZN14CRecipientList7AppendLEmRK7TDesC16 @ 12 NONAME
	_ZN16CFilterParamInfo10SetEndDateERK5TTime @ 13 NONAME
	_ZN16CFilterParamInfo11SetSortTypeE11TMsvSorting @ 14 NONAME
	_ZN16CFilterParamInfo11SetSubjectLERK7TDesC16 @ 15 NONAME
	_ZN16CFilterParamInfo18SetMessageIdFilterEl @ 16 NONAME
	_ZN16CFilterParamInfo18SetStartDateFilterERK5TTime @ 17 NONAME
	_ZN16CFilterParamInfo4NewLEv @ 18 NONAME
	_ZN16CFilterParamInfo5ResetEv @ 19 NONAME
	_ZN16CFilterParamInfo7AddMtmLERK7TDesC16 @ 20 NONAME
	_ZN16CFilterParamInfo8AddFromLERK7TDesC16 @ 21 NONAME
	_ZN17CMessagingService10GetIdListLEP16CFilterParamInfolP16CMsgCallbackBaseRP18CMsvEntrySelection @ 22 NONAME
	_ZN17CMessagingService12SendMessageLEP18CSendMessageParamsP16CMsgCallbackBase @ 23 NONAME
	_ZN17CMessagingService13ChangeStatusLEl18TMessageStatusFlagiP16CMsgCallbackBase @ 24 NONAME
	_ZN17CMessagingService14DeleteMessageLElP16CMsgCallbackBase @ 25 NONAME
	_ZN17CMessagingService14GetNextHeaderLEP16CFilterParamInfoP18CMsvEntrySelectionRiP16CMsgCallbackBaseRP14CMessageHeader @ 26 NONAME
	_ZN17CMessagingService17GetMessageDetailLElP16CMsgCallbackBaseRP18CMessageDetailInfo @ 27 NONAME
	_ZN17CMessagingService18CancelNotificationE17TNotificationTypeP16CMsgCallbackBase @ 28 NONAME
	_ZN17CMessagingService19RequestNotificationE17TNotificationTypeP16CMsgCallbackBase @ 29 NONAME
	_ZN17CMessagingService4NewLEv @ 30 NONAME
	_ZN17CMessagingService6CancelEl @ 31 NONAME
	_ZN18CMessageAttachInfo12SetMimeTypeLERK7TDesC16 @ 32 NONAME
	_ZN18CMessageAttachInfo13SetFileHandleE5RFile @ 33 NONAME
	_ZN18CMessageAttachInfo4NewLEv @ 34 NONAME
	_ZN18CMessageAttachInfo7SetSizeEl @ 35 NONAME
	_ZN18CMessageAttachInfo8SetNameLERK7TDesC16 @ 36 NONAME
	_ZN18CMessageDetailInfo12SetBodyTextLERK7TDesC16 @ 37 NONAME
	_ZN18CMessageDetailInfo12SetMessageIdEl @ 38 NONAME
	_ZN18CMessageDetailInfo13AddRecipientLERK7TDesC16m @ 39 NONAME
	_ZN18CMessageDetailInfo18AddAttachmentInfoLEP18CMessageAttachInfo @ 40 NONAME
	_ZN18CMessageDetailInfo19AttachmentInfoArrayEv @ 41 NONAME
	_ZN18CMessageDetailInfo4NewLEv @ 42 NONAME
	_ZN18CMessageDetailInfo8SetFromLERK7TDesC16 @ 43 NONAME
	_ZN18CSendMessageParams11SetSubjectLERK7TDesC16 @ 44 NONAME
	_ZN18CSendMessageParams12SetBodyTextLERK7TDesC16 @ 45 NONAME
	_ZN18CSendMessageParams13AddRecipientLERK7TDesC16m @ 46 NONAME
	_ZN18CSendMessageParams13SetTemplateIdEl @ 47 NONAME
	_ZN18CSendMessageParams14AddAttachmentLEP14CMsvAttachment @ 48 NONAME
	_ZN18CSendMessageParams15AttachmentArrayEv @ 49 NONAME
	_ZN18CSendMessageParams15SetLaunchEditorEi @ 50 NONAME
	_ZN18CSendMessageParams15SetMessageTypeLERK7TDesC16 @ 51 NONAME
	_ZN18CSendMessageParams4NewLEv @ 52 NONAME
	_ZNK14CMessageHeader10AttachFlagEv @ 53 NONAME
	_ZNK14CMessageHeader10UnreadFlagEv @ 54 NONAME
	_ZNK14CMessageHeader12GetMessageIdERl @ 55 NONAME
	_ZNK14CMessageHeader13GetAttachFlagERi @ 56 NONAME
	_ZNK14CMessageHeader13GetUnreadFlagERi @ 57 NONAME
	_ZNK14CMessageHeader15GetPriorityFlagER12TMsvPriority @ 58 NONAME
	_ZNK14CMessageHeader3MtmEv @ 59 NONAME
	_ZNK14CMessageHeader4FromEv @ 60 NONAME
	_ZNK14CMessageHeader4TimeEv @ 61 NONAME
	_ZNK14CMessageHeader7GetTimeER5TTime @ 62 NONAME
	_ZNK14CMessageHeader7SubjectEv @ 63 NONAME
	_ZNK14CMessageHeader8GetMtmIdER4TUid @ 64 NONAME
	_ZNK14CMessageHeader8PriorityEv @ 65 NONAME
	_ZNK14CMessageHeader9MessageIdEv @ 66 NONAME
	_ZNK14CRecipientList4TypeEi @ 67 NONAME
	_ZNK14CRecipientList5CountEv @ 68 NONAME
	_ZNK14CRecipientListixEi @ 69 NONAME
	_ZNK16CFilterParamInfo3MtmEv @ 70 NONAME
	_ZNK16CFilterParamInfo4FromEv @ 71 NONAME
	_ZNK16CFilterParamInfo6FilterEv @ 72 NONAME
	_ZNK16CFilterParamInfo7EndDateEv @ 73 NONAME
	_ZNK16CFilterParamInfo7SubjectEv @ 74 NONAME
	_ZNK16CFilterParamInfo8SortTypeEv @ 75 NONAME
	_ZNK16CFilterParamInfo9MessageIdEv @ 76 NONAME
	_ZNK16CFilterParamInfo9StartDateEv @ 77 NONAME
	_ZNK18CMessageAttachInfo10FileHandleEv @ 78 NONAME
	_ZNK18CMessageAttachInfo4NameEv @ 79 NONAME
	_ZNK18CMessageAttachInfo4SizeEv @ 80 NONAME
	_ZNK18CMessageAttachInfo8MimeTypeEv @ 81 NONAME
	_ZNK18CMessageDetailInfo14RecipientArrayEv @ 82 NONAME
	_ZNK18CMessageDetailInfo4FromEv @ 83 NONAME
	_ZNK18CMessageDetailInfo8BodyTextEv @ 84 NONAME
	_ZNK18CMessageDetailInfo9MessageIdEv @ 85 NONAME
	_ZNK18CSendMessageParams10TemplateIdEv @ 86 NONAME
	_ZNK18CSendMessageParams11MessageTypeEv @ 87 NONAME
	_ZNK18CSendMessageParams12LaunchEditorEv @ 88 NONAME
	_ZNK18CSendMessageParams14RecipientArrayEv @ 89 NONAME
	_ZNK18CSendMessageParams7SubjectEv @ 90 NONAME
	_ZNK18CSendMessageParams8BodyTextEv @ 91 NONAME
	_ZTI12CSendMessage @ 92 NONAME ; #<TI>#
	_ZTI14CMessageDetail @ 93 NONAME ; #<TI>#
	_ZTI14CMessageHeader @ 94 NONAME ; #<TI>#
	_ZTI14CRecipientList @ 95 NONAME ; #<TI>#
	_ZTI16CFilterParamInfo @ 96 NONAME ; #<TI>#
	_ZTI16CMessageObserver @ 97 NONAME ; #<TI>#
	_ZTI17CMessagingService @ 98 NONAME ; #<TI>#
	_ZTI18CMessageAttachInfo @ 99 NONAME ; #<TI>#
	_ZTI18CMessageDetailInfo @ 100 NONAME ; #<TI>#
	_ZTI18CSendMessageParams @ 101 NONAME ; #<TI>#
	_ZTI20CMessageChangeStatus @ 102 NONAME ; #<TI>#
	_ZTI22CMessagingAccessFolder @ 103 NONAME ; #<TI>#
	_ZTV12CSendMessage @ 104 NONAME ; #<VT>#
	_ZTV14CMessageDetail @ 105 NONAME ; #<VT>#
	_ZTV14CMessageHeader @ 106 NONAME ; #<VT>#
	_ZTV14CRecipientList @ 107 NONAME ; #<VT>#
	_ZTV16CFilterParamInfo @ 108 NONAME ; #<VT>#
	_ZTV16CMessageObserver @ 109 NONAME ; #<VT>#
	_ZTV17CMessagingService @ 110 NONAME ; #<VT>#
	_ZTV18CMessageAttachInfo @ 111 NONAME ; #<VT>#
	_ZTV18CMessageDetailInfo @ 112 NONAME ; #<VT>#
	_ZTV18CSendMessageParams @ 113 NONAME ; #<VT>#
	_ZTV20CMessageChangeStatus @ 114 NONAME ; #<VT>#
	_ZTV22CMessagingAccessFolder @ 115 NONAME ; #<VT>#

