EXPORTS
	_Z9LibEntryLR13CTestModuleIf @ 1 NONAME
	_ZTI11CWatchTimer @ 2 NONAME ; #<TI>#
	_ZTI21CBatteryStrengthAsync @ 3 NONAME ; #<TI>#
	_ZTV11CWatchTimer @ 4 NONAME ; #<VT>#
	_ZTV21CBatteryStrengthAsync @ 5 NONAME ; #<VT>#
	_ZTI10CTestAsync @ 6 NONAME ; #<TI>#
	_ZTI11CTestAsync1 @ 7 NONAME ; #<TI>#
	_ZTI11CTestAsync2 @ 8 NONAME ; #<TI>#
	_ZTI11CTestAsync3 @ 9 NONAME ; #<TI>#
	_ZTI11CTestAsync4 @ 10 NONAME ; #<TI>#
	_ZTI24CTestActiveConnReqCancel @ 11 NONAME ; #<TI>#
	_ZTI28CTestVibraNotificationCancel @ 12 NONAME ; #<TI>#
	_ZTV10CTestAsync @ 13 NONAME ; #<VT>#
	_ZTV11CTestAsync1 @ 14 NONAME ; #<VT>#
	_ZTV11CTestAsync2 @ 15 NONAME ; #<VT>#
	_ZTV11CTestAsync3 @ 16 NONAME ; #<VT>#
	_ZTV11CTestAsync4 @ 17 NONAME ; #<VT>#
	_ZTV24CTestActiveConnReqCancel @ 18 NONAME ; #<VT>#
	_ZTV28CTestVibraNotificationCancel @ 19 NONAME ; #<VT>#
	_ZTI18CInfraredTestAsync @ 20 NONAME ; #<TI>#
	_ZTV18CInfraredTestAsync @ 21 NONAME ; #<VT>#
	_ZTI17CAutoLockNotifier @ 22 NONAME ; #<TI>#
	_ZTI17CTestUserActivity @ 23 NONAME ; #<TI>#
	_ZTV17CAutoLockNotifier @ 24 NONAME ; #<VT>#
	_ZTV17CTestUserActivity @ 25 NONAME ; #<VT>#

