EXPORTS
	_Z9LibEntryLR13CTestModuleIf @ 1 NONAME
	_ZTI10CLacNotify @ 2 NONAME ; #<TI>#
	_ZTI11CWatchTimer @ 3 NONAME ; #<TI>#
	_ZTI12CCellidAsync @ 4 NONAME ; #<TI>#
	_ZTI12CHomeNwAsync @ 5 NONAME ; #<TI>#
	_ZTI13CCellidNotify @ 6 NONAME ; #<TI>#
	_ZTI14CNetModeNotify @ 7 NONAME ; #<TI>#
	_ZTI15CSignalStrAsync @ 8 NONAME ; #<TI>#
	_ZTI16CCurrentNetAsync @ 9 NONAME ; #<TI>#
	_ZTI16CRegStatusNotify @ 10 NONAME ; #<TI>#
	_ZTI16CSignalStrNotify @ 11 NONAME ; #<TI>#
	_ZTI17CCurrentNetNotify @ 12 NONAME ; #<TI>#
	_ZTI18CHomeNetworkNotify @ 13 NONAME ; #<TI>#
	_ZTI9CLacAsync @ 14 NONAME ; #<TI>#
	_ZTV10CLacNotify @ 15 NONAME ; #<VT>#
	_ZTV11CWatchTimer @ 16 NONAME ; #<VT>#
	_ZTV12CCellidAsync @ 17 NONAME ; #<VT>#
	_ZTV12CHomeNwAsync @ 18 NONAME ; #<VT>#
	_ZTV13CCellidNotify @ 19 NONAME ; #<VT>#
	_ZTV14CNetModeNotify @ 20 NONAME ; #<VT>#
	_ZTV15CSignalStrAsync @ 21 NONAME ; #<VT>#
	_ZTV16CCurrentNetAsync @ 22 NONAME ; #<VT>#
	_ZTV16CRegStatusNotify @ 23 NONAME ; #<VT>#
	_ZTV16CSignalStrNotify @ 24 NONAME ; #<VT>#
	_ZTV17CCurrentNetNotify @ 25 NONAME ; #<VT>#
	_ZTV18CHomeNetworkNotify @ 26 NONAME ; #<VT>#
	_ZTV9CLacAsync @ 27 NONAME ; #<VT>#

