EXPORTS
	_ZN10CLogsEvent12SetDirectionEi @ 1 NONAME
	_ZN10CLogsEvent4NewLEv @ 2 NONAME
	_ZN10CLogsEvent9SetStatusEi @ 3 NONAME
	_ZN11CLogsFilter12SetDirectionEi @ 4 NONAME
	_ZN11CLogsFilter4NewLEv @ 5 NONAME
	_ZN11CLogsFilter9SetEventLEP10CLogsEvent @ 6 NONAME
	_ZN11CLogsFilter9SetStatusEi @ 7 NONAME
	_ZN13CCallbackSlot4NewLEv @ 8 NONAME
	_ZN15CLogSyncService4AddLEP9CLogEvent @ 9 NONAME
	_ZN15CLogSyncService4NewLEv @ 10 NONAME
	_ZN15CLogSyncService6DeleteEl @ 11 NONAME
	_ZN15CLogSyncService8GetListLEP10CLogFilter @ 12 NONAME
	_ZN15CLoggingService12DeleteEventLEjlP16MLoggingCallback @ 13 NONAME
	_ZN15CLoggingService12DeleteEventLEl @ 14 NONAME
	_ZN15CLoggingService14CancelServiceLEj @ 15 NONAME
	_ZN15CLoggingService14NotifyUpdatesLEj27TTimeIntervalMicroSeconds32P16MLoggingCallback @ 16 NONAME
	_ZN15CLoggingService4NewLEv @ 17 NONAME
	_ZN15CLoggingService8GetListLEP11CLogsFilter @ 18 NONAME
	_ZN15CLoggingService8GetListLEjP11CLogsFilterP16MLoggingCallback @ 19 NONAME
	_ZN15CLoggingService9AddEventLEP10CLogsEvent @ 20 NONAME
	_ZN15CLoggingService9AddEventLEjP10CLogsEventP16MLoggingCallback @ 21 NONAME
	_ZN16CLogAsyncService4AddLEjP9CLogEvent @ 22 NONAME
	_ZN16CLogAsyncService4NewLEP16MLoggingCallback @ 23 NONAME
	_ZN8CLogIter4NewLEv @ 24 NONAME
	_ZN8CLogIter5NextLEv @ 25 NONAME
	_ZN8CLogIter5ResetEv @ 26 NONAME
	_ZN8CLogIter9SetEventLEP10CLogsEvent @ 27 NONAME
	_ZTI10CLogsEvent @ 28 NONAME ; #<TI>#
	_ZTI11CLogsFilter @ 29 NONAME ; #<TI>#
	_ZTI13CCallbackSlot @ 30 NONAME ; #<TI>#
	_ZTI15CLogSyncService @ 31 NONAME ; #<TI>#
	_ZTI15CLoggingService @ 32 NONAME ; #<TI>#
	_ZTI16CLogAsyncService @ 33 NONAME ; #<TI>#
	_ZTI8CLogIter @ 34 NONAME ; #<TI>#
	_ZTV10CLogsEvent @ 35 NONAME ; #<VT>#
	_ZTV11CLogsFilter @ 36 NONAME ; #<VT>#
	_ZTV13CCallbackSlot @ 37 NONAME ; #<VT>#
	_ZTV15CLogSyncService @ 38 NONAME ; #<VT>#
	_ZTV15CLoggingService @ 39 NONAME ; #<VT>#
	_ZTV16CLogAsyncService @ 40 NONAME ; #<VT>#
	_ZTV8CLogIter @ 41 NONAME ; #<VT>#

