EXPORTS
	_ZN12CContactIter4NewLEv @ 1 NONAME
	_ZN12CContactIter5NextLER7TPtrC16 @ 2 NONAME
	_ZN12CContactIter5NextLERP14CSingleContactRP6HBufC8 @ 3 NONAME
	_ZN12CContactIter5ResetEv @ 4 NONAME
	_ZN13CSearchFields4NewLEP15CContactService @ 5 NONAME
	_ZN13CSearchFields7AppendLER6TDesC8 @ 6 NONAME
	_ZN14CSingleContact10FieldCountEv @ 7 NONAME
	_ZN14CSingleContact11RemoveFieldEi @ 8 NONAME
	_ZN14CSingleContact12GetContactIdEv @ 9 NONAME
	_ZN14CSingleContact13SetContactIdLERK6TDesC8 @ 10 NONAME
	_ZN14CSingleContact15RemoveAllFieldsEv @ 11 NONAME
	_ZN14CSingleContact18AddFieldToContactLEPK19CSingleContactField @ 12 NONAME
	_ZN14CSingleContact4NewLEv @ 13 NONAME
	_ZN14CSingleContact7FieldAtEi @ 14 NONAME
	_ZN15CContactService12ExportVCardLEP16MContactCallbackiRK4TBufILi256EERK6TDesC8RK7TDesC16 @ 15 NONAME
	_ZN15CContactService12ExportVCardLERK4TBufILi256EERK6TDesC8RK7TDesC16 @ 16 NONAME
	_ZN15CContactService15OrganiseGroupsLEP16MContactCallbackiRK6TDesC8R13RPointerArrayIS2_EiRK7TDesC16 @ 17 NONAME
	_ZN15CContactService15OrganiseGroupsLERK6TDesC8R13RPointerArrayIS0_EiRK7TDesC16 @ 18 NONAME
	_ZN15CContactService19ImportVCardToStoreLEP16MContactCallbackiRK4TBufILi256EERK7TDesC16 @ 19 NONAME
	_ZN15CContactService19ImportVCardToStoreLERK4TBufILi256EERK7TDesC16 @ 20 NONAME
	_ZN15CContactService4AddLEP14CSingleContactRK6TDesC8RK7TDesC16S7_ @ 21 NONAME
	_ZN15CContactService4AddLEP16MContactCallbackiP14CSingleContactRK6TDesC8RK7TDesC16S9_ @ 22 NONAME
	_ZN15CContactService4NewLEv @ 23 NONAME
	_ZN15CContactService6CancelEl @ 24 NONAME
	_ZN15CContactService7DeleteLEP16MContactCallbackiR13RPointerArrayI6TDesC8ERK7TDesC16 @ 25 NONAME
	_ZN15CContactService7DeleteLER13RPointerArrayI6TDesC8ERK7TDesC16 @ 26 NONAME
	_ZN15CContactService8GetListLE5TtypeRK6TDesC8RK7TDesC16P13CSearchFields6TOrderS6_8TCmdType @ 27 NONAME
	_ZN15CContactService8GetListLEP16MContactCallbacki5TtypeRK6TDesC8RK7TDesC16P13CSearchFields6TOrderS8_8TCmdType @ 28 NONAME
	_ZN15CContactService8GetListLER12CContactIter @ 29 NONAME
	_ZN19CSingleContactField11GetDateTimeEv @ 30 NONAME
	_ZN19CSingleContactField13GetFieldDataLER6TPtrC8R7TPtrC16S3_ @ 31 NONAME
	_ZN19CSingleContactField13GetFieldDataLER7TPtrC16R13RPointerArrayI6TDesC8E @ 32 NONAME
	_ZN19CSingleContactField15SetFieldParamsLERK6TDesC8RK7TDesC16S5_ @ 33 NONAME
	_ZN19CSingleContactField4NewLEv @ 34 NONAME
	_ZTI12CContactIter @ 35 NONAME ; #<TI>#
	_ZTI13CSearchFields @ 36 NONAME ; #<TI>#
	_ZTI14CSingleContact @ 37 NONAME ; #<TI>#
	_ZTI15CContactService @ 38 NONAME ; #<TI>#
	_ZTI16CContactSyncIter @ 39 NONAME ; #<TI>#
	_ZTI19CAddContactObserver @ 40 NONAME ; #<TI>#
	_ZTI19CSingleContactField @ 41 NONAME ; #<TI>#
	_ZTI20CContactSyncCallback @ 42 NONAME ; #<TI>#
	_ZTI20CContactViewObserver @ 43 NONAME ; #<TI>#
	_ZTI22CDeleteContactObserver @ 44 NONAME ; #<TI>#
	_ZTI23COrganiseGroupsObserver @ 45 NONAME ; #<TI>#
	_ZTI24CContactRetrieveObserver @ 46 NONAME ; #<TI>#
	_ZTI24CExportStoreListObserver @ 47 NONAME ; #<TI>#
	_ZTI24CImportStoreListObserver @ 48 NONAME ; #<TI>#
	_ZTI25CGetListStoreListObserver @ 49 NONAME ; #<TI>#
	_ZTV12CContactIter @ 50 NONAME ; #<VT>#
	_ZTV13CSearchFields @ 51 NONAME ; #<VT>#
	_ZTV14CSingleContact @ 52 NONAME ; #<VT>#
	_ZTV15CContactService @ 53 NONAME ; #<VT>#
	_ZTV16CContactSyncIter @ 54 NONAME ; #<VT>#
	_ZTV19CAddContactObserver @ 55 NONAME ; #<VT>#
	_ZTV19CSingleContactField @ 56 NONAME ; #<VT>#
	_ZTV20CContactSyncCallback @ 57 NONAME ; #<VT>#
	_ZTV20CContactViewObserver @ 58 NONAME ; #<VT>#
	_ZTV22CDeleteContactObserver @ 59 NONAME ; #<VT>#
	_ZTV23COrganiseGroupsObserver @ 60 NONAME ; #<VT>#
	_ZTV24CContactRetrieveObserver @ 61 NONAME ; #<VT>#
	_ZTV24CExportStoreListObserver @ 62 NONAME ; #<VT>#
	_ZTV24CImportStoreListObserver @ 63 NONAME ; #<VT>#
	_ZTV25CGetListStoreListObserver @ 64 NONAME ; #<VT>#
	_ZN19CSingleContactField11SetDateTimeE5TTime @ 65 NONAME
	_ZN13CSearchFields17GetFieldKeyFromIdEi @ 66 NONAME
	_ZN13CSearchFields17GetIdFromFieldKeyER6TDesC8 @ 67 NONAME
	_ZN15CContactService9GetErrKeyEv @ 68 NONAME
	_ZN15CContactService7GetIdsLE5TtypeRK7TDesC16P13CSearchFields6TOrderS3_8TCmdType @ 69 NONAME
	_ZN19CSingleContactField10SetUriDataE7TPtrC16 @ 70 NONAME	
	_ZN19CSingleContactField13GetXspidDataLER13RPointerArrayI7HBufC16E @ 71 NONAME
	_ZN19CSingleContactField13SetXspidDataLERK6TDesC8RK7TDesC16R13RPointerArrayI7HBufC16E @ 72 NONAME
	_ZN19CSingleContactField17GetUriFieldParamLER13RPointerArrayI7HBufC16E @ 73 NONAME
	_ZN19CSingleContactField18SetUriFieldParamsLERK6TDesC8RK7TDesC1613RPointerArrayI7HBufC16E @ 74 NONAME