EXPORTS
	_Z9LibEntryLR13CTestModuleIf @ 1 NONAME
	_ZTI14TraceLCallBack @ 2 NONAME ; #<TI>#
	_ZTI15TraceLCallBack2 @ 3 NONAME ; #<TI>#
	_ZTI15TraceLCallBack4 @ 4 NONAME ; #<TI>#
	_ZTI15TraceLCallBack6 @ 5 NONAME ; #<TI>#
	_ZTI15TraceLCallBack7 @ 6 NONAME ; #<TI>#
	_ZTI16CTraceLCallBack5 @ 7 NONAME ; #<TI>#
	_ZTI16TraceLCallBackTO @ 8 NONAME ; #<TI>#
	_ZTI17LocUpdateCallBack @ 9 NONAME ; #<TI>#
	_ZTI18LocUpdateCallBack5 @ 10 NONAME ; #<TI>#
	_ZTI18LocUpdateCallBack8 @ 11 NONAME ; #<TI>#
	_ZTI19CLocUpdateCallBack6 @ 12 NONAME ; #<TI>#
	_ZTI19TraceLCallBackOpts1 @ 13 NONAME ; #<TI>#
	_ZTI19TraceLCallBackOpts3 @ 14 NONAME ; #<TI>#
	_ZTI22LocUpdateCallBackOpts1 @ 15 NONAME ; #<TI>#
	_ZTI22LocUpdateCallBackOpts2 @ 16 NONAME ; #<TI>#
	_ZTI22LocUpdateCallBackOpts3 @ 17 NONAME ; #<TI>#
	_ZTI22LocUpdateCallBackOpts4 @ 18 NONAME ; #<TI>#
	_ZTV14TraceLCallBack @ 19 NONAME ; #<VT>#
	_ZTV15TraceLCallBack2 @ 20 NONAME ; #<VT>#
	_ZTV15TraceLCallBack4 @ 21 NONAME ; #<VT>#
	_ZTV15TraceLCallBack6 @ 22 NONAME ; #<VT>#
	_ZTV15TraceLCallBack7 @ 23 NONAME ; #<VT>#
	_ZTV16CTraceLCallBack5 @ 24 NONAME ; #<VT>#
	_ZTV16TraceLCallBackTO @ 25 NONAME ; #<VT>#
	_ZTV17LocUpdateCallBack @ 26 NONAME ; #<VT>#
	_ZTV18LocUpdateCallBack5 @ 27 NONAME ; #<VT>#
	_ZTV18LocUpdateCallBack8 @ 28 NONAME ; #<VT>#
	_ZTV19CLocUpdateCallBack6 @ 29 NONAME ; #<VT>#
	_ZTV19TraceLCallBackOpts1 @ 30 NONAME ; #<VT>#
	_ZTV19TraceLCallBackOpts3 @ 31 NONAME ; #<VT>#
	_ZTV22LocUpdateCallBackOpts1 @ 32 NONAME ; #<VT>#
	_ZTV22LocUpdateCallBackOpts2 @ 33 NONAME ; #<VT>#
	_ZTV22LocUpdateCallBackOpts3 @ 34 NONAME ; #<VT>#
	_ZTV22LocUpdateCallBackOpts4 @ 35 NONAME ; #<VT>#
	_ZTI16Modinfo1CallBack @ 36 NONAME ; #<TI>#
	_ZTV16Modinfo1CallBack @ 37 NONAME ; #<VT>#

